target datalayout = "e-m:e-p270:32:32-p271:32:32-p272:64:64-i64:64-i128:128-f80:128-n8:16:32:64-S128"
target triple = "x86_64-pc-linux-gnu"

%"union.icu_77::Transliterator::Token" = type { ptr }

@_ZN6icu_7727NormalizationTransliteratorC1ERKNS_13UnicodeStringERKNS_11Normalizer2E = unnamed_addr alias void (ptr, ptr, ptr), ptr @_ZN6icu_7727NormalizationTransliteratorC2ERKNS_13UnicodeStringERKNS_11Normalizer2E

; Function Attrs: inlinehint mustprogress nounwind uwtable
define internal noundef signext i8 @_ZL9U_SUCCESS10UErrorCode(i32 noundef %0) #4 {
  %2 = alloca i32, align 4
  store i32 %0, ptr %2, align 4, !tbaa !21
  %3 = load i32, ptr %2, align 4, !tbaa !21
  %4 = icmp sle i32 %3, 0
  %5 = zext i1 %4 to i8
  ret i8 %5
}

; Function Attrs: mustprogress uwtable
define noundef ptr @_ZN6icu_7727NormalizationTransliterator7_createERKNS_13UnicodeStringENS_14Transliterator5TokenE(ptr noundef nonnull align 8 dereferenceable(64) %0, ptr %1) #1 align 2 personality ptr @__gxx_personality_v0 {
  %3 = alloca ptr, align 8
  %4 = alloca %"union.icu_77::Transliterator::Token", align 8
  %5 = alloca ptr, align 8
  %6 = alloca ptr, align 8
  %7 = alloca i32, align 4
  %8 = alloca i32, align 4
  %9 = alloca ptr, align 8
  %10 = alloca ptr, align 8
  %11 = alloca i1, align 1
  %12 = alloca ptr, align 8
  %13 = alloca i32, align 4
  %14 = alloca i32, align 4
  %15 = getelementptr inbounds nuw %"union.icu_77::Transliterator::Token", ptr %4, i32 0, i32 0
  store ptr %1, ptr %15, align 8
  store ptr %0, ptr %5, align 8, !tbaa !14
  call void @llvm.lifetime.start.p0(i64 8, ptr %6) #8
  %16 = load ptr, ptr %4, align 8, !tbaa !16
  store ptr %16, ptr %6, align 8, !tbaa !17
  call void @llvm.lifetime.start.p0(i64 4, ptr %7) #8
  %17 = load ptr, ptr %6, align 8, !tbaa !17
  %18 = call noundef ptr @strchr(ptr noundef %17, i32 noundef 0) #9
  %19 = getelementptr inbounds i8, ptr %18, i64 1
  %20 = load i8, ptr %19, align 1, !tbaa !16
  %21 = sext i8 %20 to i32
  store i32 %21, ptr %7, align 4, !tbaa !19
  call void @llvm.lifetime.start.p0(i64 4, ptr %8) #8
  store i32 0, ptr %8, align 4, !tbaa !21
  call void @llvm.lifetime.start.p0(i64 8, ptr %9) #8
  %22 = load ptr, ptr %6, align 8, !tbaa !17
  %23 = load i32, ptr %7, align 4, !tbaa !19
  %24 = call noundef ptr @_ZN6icu_7711Normalizer211getInstanceEPKcS2_19UNormalization2ModeR10UErrorCode(ptr noundef null, ptr noundef %22, i32 noundef %23, ptr noundef nonnull align 4 dereferenceable(4) %8)
  store ptr %24, ptr %9, align 8, !tbaa !23
  %25 = load i32, ptr %8, align 4, !tbaa !21
  %26 = call noundef signext i8 @_ZL9U_SUCCESS10UErrorCode(i32 noundef %25)
  %27 = icmp ne i8 %26, 0
  br i1 %27, label %28, label %45

28:                                               ; preds = %2
  %29 = call noundef ptr @_ZN6icu_777UMemorynwEm(i64 noundef 96) #8
  %30 = icmp eq ptr %29, null
  store i1 false, ptr %11, align 1
  br i1 %30, label %35, label %31

31:                                               ; preds = %28
  store ptr %29, ptr %10, align 8
  store i1 true, ptr %11, align 1
  %32 = load ptr, ptr %5, align 8, !tbaa !14
  %33 = load ptr, ptr %9, align 8, !tbaa !23
  invoke void @_ZN6icu_7727NormalizationTransliteratorC1ERKNS_13UnicodeStringERKNS_11Normalizer2E(ptr noundef nonnull align 8 dereferenceable(96) %29, ptr noundef nonnull align 8 dereferenceable(64) %32, ptr noundef nonnull align 8 dereferenceable(8) %33)
          to label %34 unwind label %37

34:                                               ; preds = %31
  br label %35

35:                                               ; preds = %34, %28
  %36 = phi ptr [ %29, %34 ], [ null, %28 ]
  store ptr %36, ptr %3, align 8
  store i32 1, ptr %14, align 4
  br label %46

37:                                               ; preds = %31
  %38 = landingpad { ptr, i32 }
          cleanup
  %39 = extractvalue { ptr, i32 } %38, 0
  store ptr %39, ptr %12, align 8
  %40 = extractvalue { ptr, i32 } %38, 1
  store i32 %40, ptr %13, align 4
  %41 = load i1, ptr %11, align 1
  br i1 %41, label %42, label %44

42:                                               ; preds = %37
  %43 = load ptr, ptr %10, align 8
  call void @_ZN6icu_777UMemorydlEPv(ptr noundef %43) #8
  br label %44

44:                                               ; preds = %42, %37
  call void @llvm.lifetime.end.p0(i64 8, ptr %9) #8
  call void @llvm.lifetime.end.p0(i64 4, ptr %8) #8
  call void @llvm.lifetime.end.p0(i64 4, ptr %7) #8
  call void @llvm.lifetime.end.p0(i64 8, ptr %6) #8
  br label %48

45:                                               ; preds = %2
  store ptr null, ptr %3, align 8
  store i32 1, ptr %14, align 4
  br label %46

46:                                               ; preds = %45, %35
  call void @llvm.lifetime.end.p0(i64 8, ptr %9) #8
  call void @llvm.lifetime.end.p0(i64 4, ptr %8) #8
  call void @llvm.lifetime.end.p0(i64 4, ptr %7) #8
  call void @llvm.lifetime.end.p0(i64 8, ptr %6) #8
  %47 = load ptr, ptr %3, align 8
  ret ptr %47

48:                                               ; preds = %44
  %49 = load ptr, ptr %12, align 8
  %50 = load i32, ptr %13, align 4
  %51 = insertvalue { ptr, i32 } poison, ptr %49, 0
  %52 = insertvalue { ptr, i32 } %51, i32 %50, 1
  resume { ptr, i32 } %52
}