; Function Attrs: mustprogress uwtable
define noundef ptr @_ZN6icu_7727NormalizationTransliterator7_createERKNS_13UnicodeStringENS_14Transliterator5TokenE(ptr noundef nonnull align 8 dereferenceable(64) %0, ptr %1) #1 align 2 personality ptr @__gxx_personality_v0 {
  %3 = alloca i32, align 4
  %strlen = tail call i64 @strlen(ptr noundef nonnull dereferenceable(1) %1)
  %strchr = getelementptr inbounds i8, ptr %1, i64 %strlen
  %4 = getelementptr inbounds nuw i8, ptr %strchr, i64 1
  %5 = load i8, ptr %4, align 1, !tbaa !10
  %6 = sext i8 %5 to i32
  call void @llvm.lifetime.start.p0(i64 4, ptr nonnull %3) #7
  store i32 0, ptr %3, align 4, !tbaa !11
  %7 = call noundef ptr @_ZN6icu_7711Normalizer211getInstanceEPKcS2_19UNormalization2ModeR10UErrorCode(ptr noundef null, ptr noundef nonnull %1, i32 noundef %6, ptr noundef nonnull align 4 dereferenceable(4) %3)
  %8 = load i32, ptr %3, align 4, !tbaa !11
  %9 = icmp sgt i32 %8, 0
  br i1 %9, label %16, label %10

10:                                               ; preds = %2
  %11 = call noundef ptr @_ZN6icu_777UMemorynwEm(i64 noundef 96) #7
  %12 = icmp eq ptr %11, null
  br i1 %12, label %16, label %13

13:                                               ; preds = %10
  invoke void @_ZN6icu_7727NormalizationTransliteratorC1ERKNS_13UnicodeStringERKNS_11Normalizer2E(ptr noundef nonnull align 8 dereferenceable(96) %11, ptr noundef nonnull align 8 dereferenceable(64) %0, ptr noundef nonnull align 8 dereferenceable(8) %7)
          to label %16 unwind label %14

14:                                               ; preds = %13
  %15 = landingpad { ptr, i32 }
          cleanup
  call void @_ZN6icu_777UMemorydlEPv(ptr noundef nonnull %11) #7
  call void @llvm.lifetime.end.p0(i64 4, ptr nonnull %3) #7
  resume { ptr, i32 } %15

16:                                               ; preds = %2, %10, %13
  %.0 = phi ptr [ null, %10 ], [ %11, %13 ], [ null, %2 ]
  call void @llvm.lifetime.end.p0(i64 4, ptr nonnull %3) #7
  ret ptr %.0
}